; ModuleID = 'bench/z3/original/mem_initializer.ll'
source_filename = "bench/z3/original/mem_initializer.ll"
target datalayout = "e-m:e-p270:32:32-p271:32:32-p272:64:64-i64:64-i128:128-f80:128-n8:16:32:64-S128"
target triple = "x86_64-pc-linux-gnu"

%"class.std::ios_base::Init" = type { i8 }

@_ZStL8__ioinit = internal global %"class.std::ios_base::Init" zeroinitializer, align 1
@__dso_handle = external hidden global i8
@llvm.global_ctors = appending global [1 x { i32, ptr, ptr }] [{ i32, ptr, ptr } { i32 65535, ptr @_GLOBAL__sub_I_mem_initializer.cpp, ptr null }]

declare void @_ZNSt8ios_base4InitC1Ev(ptr noundef nonnull align 1 dereferenceable(1)) unnamed_addr #0

; Function Attrs: nounwind
declare void @_ZNSt8ios_base4InitD1Ev(ptr noundef nonnull align 1 dereferenceable(1)) unnamed_addr #1

; Function Attrs: nofree nounwind
declare i32 @__cxa_atexit(ptr, ptr, ptr) local_unnamed_addr #2

; Function Attrs: mustprogress uwtable
define hidden void @_Z14mem_initializev() local_unnamed_addr #3 {
  tail call void @_ZN14prime_iterator10initializeEv()
  tail call void @_ZN8rational10initializeEv()
  tail call void @_Z17initialize_rlimitv()
  tail call void @_ZN12scoped_timer10initializeEv()
  tail call void @_Z18initialize_symbolsv()
  tail call void @_ZN7gparams4initEv()
  ret void
}

declare void @_ZN14prime_iterator10initializeEv() local_unnamed_addr #0

declare void @_ZN8rational10initializeEv() local_unnamed_addr #0

declare void @_Z17initialize_rlimitv() local_unnamed_addr #0

declare void @_ZN12scoped_timer10initializeEv() local_unnamed_addr #0

declare void @_Z18initialize_symbolsv() local_unnamed_addr #0

declare void @_ZN7gparams4initEv() local_unnamed_addr #0

; Function Attrs: mustprogress uwtable
define hidden void @_Z12mem_finalizev() local_unnamed_addr #3 {
  tail call void @_Z14finalize_debugv()
  tail call void @_ZN7gparams8finalizeEv()
  tail call void @_ZN14prime_iterator8finalizeEv()
  tail call void @_ZN8rational8finalizeEv()
  tail call void @_Z15finalize_rlimitv()
  tail call void @_Z16finalize_symbolsv()
  ret void
}

declare void @_Z14finalize_debugv() local_unnamed_addr #0

declare void @_ZN7gparams8finalizeEv() local_unnamed_addr #0

declare void @_ZN14prime_iterator8finalizeEv() local_unnamed_addr #0

declare void @_ZN8rational8finalizeEv() local_unnamed_addr #0

declare void @_Z15finalize_rlimitv() local_unnamed_addr #0

declare void @_Z16finalize_symbolsv() local_unnamed_addr #0

; Function Attrs: uwtable
define internal void @_GLOBAL__sub_I_mem_initializer.cpp() #4 section ".text.startup" {
  tail call void @_ZNSt8ios_base4InitC1Ev(ptr noundef nonnull align 1 dereferenceable(1) @_ZStL8__ioinit)
  %1 = tail call i32 @__cxa_atexit(ptr nonnull @_ZNSt8ios_base4InitD1Ev, ptr nonnull @_ZStL8__ioinit, ptr nonnull @__dso_handle) #5
  ret void
}


!llvm.linker.options = !{}
!llvm.module.flags = !{!0, !1, !2, !3}

!0 = !{i32 1, !"wchar_size", i32 4}
!1 = !{i32 8, !"PIC Level", i32 2}
!2 = !{i32 7, !"PIE Level", i32 2}
!3 = !{i32 7, !"uwtable", i32 2}
